target datalayout = "e-m:e-p270:32:32-p271:32:32-p272:64:64-i64:64-i128:128-f80:128-n8:16:32:64-S128"
target triple = "x86_64-pc-linux-gnu"

%"struct.std::atomic.6" = type { %"struct.std::__atomic_base.7" }
%"struct.std::__atomic_base.7" = type { i8 }
%"class.std::mutex" = type { %"class.std::__mutex_base" }
%"class.std::__mutex_base" = type { %union.pthread_mutex_t }
%union.pthread_mutex_t = type { %struct.__pthread_mutex_s }
%struct.__pthread_mutex_s = type { i32, i32, i32, i32, i32, i16, i16, %struct.__pthread_internal_list }
%struct.__pthread_internal_list = type { ptr, ptr }
%"struct.std::atomic" = type { %"struct.std::__atomic_base" }
%"struct.std::__atomic_base" = type { i64 }
%"class.duckdb::TaskScheduler" = type <{ ptr, %"class.duckdb::unique_ptr.211", %"class.std::mutex", %"class.duckdb::vector.220", %"class.duckdb::vector.226", %"struct.std::atomic", %"struct.std::atomic.6", [3 x i8], %"struct.std::atomic.232", %"struct.std::atomic.232", [4 x i8] }>
%"class.duckdb::unique_ptr.211" = type { %"class.std::unique_ptr.212" }
%"class.std::unique_ptr.212" = type { %"struct.std::__uniq_ptr_data.213" }
%"struct.std::__uniq_ptr_data.213" = type { %"class.std::__uniq_ptr_impl.214" }
%"class.std::__uniq_ptr_impl.214" = type { %"class.std::tuple.215" }
%"class.std::tuple.215" = type { %"struct.std::_Tuple_impl.216" }
%"struct.std::_Tuple_impl.216" = type { %"struct.std::_Head_base.219" }
%"struct.std::_Head_base.219" = type { ptr }
%"class.duckdb::vector.220" = type { %"class.std::vector.221" }
%"class.std::vector.221" = type { %"struct.std::_Vector_base.222" }
%"struct.std::_Vector_base.222" = type { %"struct.std::_Vector_base<duckdb::unique_ptr<duckdb::SchedulerThread>, std::allocator<duckdb::unique_ptr<duckdb::SchedulerThread>>>::_Vector_impl" }
%"struct.std::_Vector_base<duckdb::unique_ptr<duckdb::SchedulerThread>, std::allocator<duckdb::unique_ptr<duckdb::SchedulerThread>>>::_Vector_impl" = type { %"struct.std::_Vector_base<duckdb::unique_ptr<duckdb::SchedulerThread>, std::allocator<duckdb::unique_ptr<duckdb::SchedulerThread>>>::_Vector_impl_data" }
%"struct.std::_Vector_base<duckdb::unique_ptr<duckdb::SchedulerThread>, std::allocator<duckdb::unique_ptr<duckdb::SchedulerThread>>>::_Vector_impl_data" = type { ptr, ptr, ptr }
%"class.duckdb::vector.226" = type { %"class.std::vector.227" }
%"class.std::vector.227" = type { %"struct.std::_Vector_base.228" }
%"struct.std::_Vector_base.228" = type { %"struct.std::_Vector_base<duckdb::unique_ptr<std::atomic<bool>>, std::allocator<duckdb::unique_ptr<std::atomic<bool>>>>::_Vector_impl" }
%"struct.std::_Vector_base<duckdb::unique_ptr<std::atomic<bool>>, std::allocator<duckdb::unique_ptr<std::atomic<bool>>>>::_Vector_impl" = type { %"struct.std::_Vector_base<duckdb::unique_ptr<std::atomic<bool>>, std::allocator<duckdb::unique_ptr<std::atomic<bool>>>>::_Vector_impl_data" }
%"struct.std::_Vector_base<duckdb::unique_ptr<std::atomic<bool>>, std::allocator<duckdb::unique_ptr<std::atomic<bool>>>>::_Vector_impl_data" = type { ptr, ptr, ptr }
%"struct.std::atomic.232" = type { %"struct.std::__atomic_base.233" }
%"struct.std::__atomic_base.233" = type { i32 }
%"class.std::lock_guard" = type { ptr }
%"class.duckdb::unique_ptr.672" = type { %"class.std::unique_ptr.673" }
%"class.std::unique_ptr.673" = type { %"struct.std::__uniq_ptr_data.674" }
%"struct.std::__uniq_ptr_data.674" = type { %"class.std::__uniq_ptr_impl.675" }
%"class.std::__uniq_ptr_impl.675" = type { %"class.std::tuple.676" }
%"class.std::tuple.676" = type { %"struct.std::_Tuple_impl.677" }
%"struct.std::_Tuple_impl.677" = type { %"struct.std::_Head_base.680" }
%"struct.std::_Head_base.680" = type { ptr }
%"struct.duckdb::ProducerToken" = type { ptr, %"class.duckdb::unique_ptr.672", %"class.std::mutex" }
%"struct.duckdb::ConcurrentQueue" = type { %"class.duckdb_moodycamel::ConcurrentQueue", %"class.duckdb_moodycamel::LightweightSemaphore" }
%"class.duckdb_moodycamel::ConcurrentQueue" = type <{ %"struct.std::atomic.1050", %"struct.std::atomic.1052", [4 x i8], %"struct.std::atomic", ptr, i64, %"struct.duckdb_moodycamel::ConcurrentQueue<duckdb::shared_ptr<duckdb::Task>>::FreeList", %"struct.std::atomic.1056", %"struct.std::atomic", %"struct.duckdb_moodycamel::ConcurrentQueue<duckdb::shared_ptr<duckdb::Task>>::ImplicitProducerHash", %"struct.std::array", %"struct.std::atomic_flag", [3 x i8], %"struct.std::atomic.1052", %"struct.std::atomic.1052", [4 x i8] }>
%"struct.std::atomic.1050" = type { %"struct.std::__atomic_base.1051" }
%"struct.std::__atomic_base.1051" = type { ptr }
%"struct.duckdb_moodycamel::ConcurrentQueue<duckdb::shared_ptr<duckdb::Task>>::FreeList" = type { %"struct.std::atomic.1054" }
%"struct.std::atomic.1054" = type { %"struct.std::__atomic_base.1055" }
%"struct.std::__atomic_base.1055" = type { ptr }
%"struct.std::atomic.1056" = type { %"struct.std::__atomic_base.1057" }
%"struct.std::__atomic_base.1057" = type { ptr }
%"struct.duckdb_moodycamel::ConcurrentQueue<duckdb::shared_ptr<duckdb::Task>>::ImplicitProducerHash" = type { i64, ptr, ptr }
%"struct.std::array" = type { [32 x %"struct.duckdb_moodycamel::ConcurrentQueue<duckdb::shared_ptr<duckdb::Task>>::ImplicitProducerKVP"] }
%"struct.duckdb_moodycamel::ConcurrentQueue<duckdb::shared_ptr<duckdb::Task>>::ImplicitProducerKVP" = type { %"struct.std::atomic", ptr }
%"struct.std::atomic_flag" = type { %"struct.std::__atomic_flag_base" }
%"struct.std::__atomic_flag_base" = type { i8 }
%"struct.std::atomic.1052" = type { %"struct.std::__atomic_base.1053" }
%"struct.std::__atomic_base.1053" = type { i32 }
%"class.duckdb_moodycamel::LightweightSemaphore" = type { %"struct.std::atomic.1058", %"class.duckdb_moodycamel::details::Semaphore" }
%"struct.std::atomic.1058" = type { %"struct.std::__atomic_base.1059" }
%"struct.std::__atomic_base.1059" = type { i64 }
%"class.duckdb_moodycamel::details::Semaphore" = type { %union.sem_t }
%union.sem_t = type { i64, [24 x i8] }
%"struct.duckdb::QueueProducerToken" = type { %"struct.duckdb_moodycamel::ProducerToken" }
%"struct.duckdb_moodycamel::ProducerToken" = type { ptr }

; Function Attrs: inlinehint mustprogress nounwind uwtable
define internal noundef i32 @_ZL18__gthread_active_pv() #3 {
  ret i32 1
}

; Function Attrs: inlinehint mustprogress nounwind uwtable
define internal noundef i32 @_ZL22__gthread_mutex_unlockP15pthread_mutex_t(ptr noundef %0) #3 {
  %2 = alloca i32, align 4
  %3 = alloca ptr, align 8
  store ptr %0, ptr %3, align 8, !tbaa !181
  %4 = call noundef i32 @_ZL18__gthread_active_pv()
  %5 = icmp ne i32 %4, 0
  br i1 %5, label %6, label %9

6:                                                ; preds = %1
  %7 = load ptr, ptr %3, align 8, !tbaa !181
  %8 = call i32 @pthread_mutex_unlock(ptr noundef %7) #24
  store i32 %8, ptr %2, align 4
  br label %10

9:                                                ; preds = %1
  store i32 0, ptr %2, align 4
  br label %10

10:                                               ; preds = %9, %6
  %11 = load i32, ptr %2, align 4
  ret i32 %11
}

; Function Attrs: inlinehint mustprogress uwtable
define internal noundef i32 @_ZL20__gthread_mutex_lockP15pthread_mutex_t(ptr noundef %0) #5 {
  %2 = alloca i32, align 4
  %3 = alloca ptr, align 8
  store ptr %0, ptr %3, align 8, !tbaa !181
  %4 = call noundef i32 @_ZL18__gthread_active_pv()
  %5 = icmp ne i32 %4, 0
  br i1 %5, label %6, label %9

6:                                                ; preds = %1
  %7 = load ptr, ptr %3, align 8, !tbaa !181
  %8 = call i32 @pthread_mutex_lock(ptr noundef %7) #24
  store i32 %8, ptr %2, align 4
  br label %10

9:                                                ; preds = %1
  store i32 0, ptr %2, align 4
  br label %10

10:                                               ; preds = %9, %6
  %11 = load i32, ptr %2, align 4
  ret i32 %11
}

; Function Attrs: noinline noreturn nounwind uwtable
define linkonce_odr hidden void @__clang_call_terminate(ptr noundef %0) #6 comdat {
  %2 = call ptr @__cxa_begin_catch(ptr %0) #24
  call void @_ZSt9terminatev() #25
  unreachable
}

; Function Attrs: mustprogress uwtable
define linkonce_odr void @_ZNSt5mutex6unlockEv(ptr noundef nonnull align 8 dereferenceable(40) %0) #0 comdat align 2 {
  %2 = alloca ptr, align 8
  store ptr %0, ptr %2, align 8, !tbaa !350
  %3 = load ptr, ptr %2, align 8
  %4 = getelementptr inbounds nuw %"class.std::__mutex_base", ptr %3, i32 0, i32 0
  %5 = call noundef i32 @_ZL22__gthread_mutex_unlockP15pthread_mutex_t(ptr noundef %4)
  ret void
}

; Function Attrs: mustprogress uwtable
define linkonce_odr void @_ZNSt5mutex4lockEv(ptr noundef nonnull align 8 dereferenceable(40) %0) #0 comdat align 2 {
  %2 = alloca ptr, align 8
  %3 = alloca i32, align 4
  store ptr %0, ptr %2, align 8, !tbaa !350
  %4 = load ptr, ptr %2, align 8
  call void @llvm.lifetime.start.p0(i64 4, ptr %3) #24
  %5 = getelementptr inbounds nuw %"class.std::__mutex_base", ptr %4, i32 0, i32 0
  %6 = call noundef i32 @_ZL20__gthread_mutex_lockP15pthread_mutex_t(ptr noundef %5)
  store i32 %6, ptr %3, align 4, !tbaa !189
  %7 = load i32, ptr %3, align 4, !tbaa !189
  %8 = icmp ne i32 %7, 0
  br i1 %8, label %9, label %11

9:                                                ; preds = %1
  %10 = load i32, ptr %3, align 4, !tbaa !189
  call void @_ZSt20__throw_system_errori(i32 noundef %10) #26
  unreachable

11:                                               ; preds = %1
  call void @llvm.lifetime.end.p0(i64 4, ptr %3) #24
  ret void
}

; Function Attrs: mustprogress nounwind uwtable
define linkonce_odr void @_ZNSt10lock_guardISt5mutexED2Ev(ptr noundef nonnull align 8 dereferenceable(8) %0) unnamed_addr #1 comdat align 2 personality ptr @__gxx_personality_v0 {
  %2 = alloca ptr, align 8
  store ptr %0, ptr %2, align 8, !tbaa !382
  %3 = load ptr, ptr %2, align 8
  %4 = getelementptr inbounds nuw %"class.std::lock_guard", ptr %3, i32 0, i32 0
  %5 = load ptr, ptr %4, align 8, !tbaa !384
  invoke void @_ZNSt5mutex6unlockEv(ptr noundef nonnull align 8 dereferenceable(40) %5)
          to label %6 unwind label %7

6:                                                ; preds = %1
  ret void

7:                                                ; preds = %1
  %8 = landingpad { ptr, i32 }
          catch ptr null
  %9 = extractvalue { ptr, i32 } %8, 0
  call void @__clang_call_terminate(ptr %9) #25
  unreachable
}

; Function Attrs: inlinehint mustprogress uwtable
define linkonce_odr noundef zeroext i1 @_ZN17duckdb_moodycamel15ConcurrentQueueIN6duckdb10shared_ptrINS1_4TaskELb1EEENS_28ConcurrentQueueDefaultTraitsEE25try_dequeue_from_producerIS4_EEbRKNS_13ProducerTokenERT_(ptr noundef nonnull align 8 dereferenceable(612) %0, ptr noundef nonnull align 8 dereferenceable(8) %1, ptr noundef nonnull align 8 dereferenceable(16) %2) #5 comdat align 2 {
  %4 = alloca ptr, align 8
  %5 = alloca ptr, align 8
  %6 = alloca ptr, align 8
  store ptr %0, ptr %4, align 8, !tbaa !1199
  store ptr %1, ptr %5, align 8, !tbaa !1201
  store ptr %2, ptr %6, align 8, !tbaa !319
  %7 = load ptr, ptr %5, align 8, !tbaa !1201
  %8 = getelementptr inbounds nuw %"struct.duckdb_moodycamel::ProducerToken", ptr %7, i32 0, i32 0
  %9 = load ptr, ptr %8, align 8, !tbaa !1209
  %10 = icmp eq ptr %9, null
  br i1 %10, label %13, label %11

11:                                               ; preds = %3
  %12 = getelementptr inbounds i8, ptr %9, i64 -8
  br label %14

13:                                               ; preds = %3
  br label %14

14:                                               ; preds = %13, %11
  %15 = phi ptr [ %12, %11 ], [ null, %13 ]
  %16 = load ptr, ptr %6, align 8, !tbaa !319
  %17 = call noundef zeroext i1 @_ZN17duckdb_moodycamel15ConcurrentQueueIN6duckdb10shared_ptrINS1_4TaskELb1EEENS_28ConcurrentQueueDefaultTraitsEE16ExplicitProducer7dequeueIS4_EEbRT_(ptr noundef nonnull align 8 dereferenceable(136) %15, ptr noundef nonnull align 8 dereferenceable(16) %16)
  ret i1 %17
}

; Function Attrs: mustprogress uwtable
define linkonce_odr void @_ZNSt10lock_guardISt5mutexEC2ERS0_(ptr noundef nonnull align 8 dereferenceable(8) %0, ptr noundef nonnull align 8 dereferenceable(40) %1) unnamed_addr #0 comdat align 2 {
  %3 = alloca ptr, align 8
  %4 = alloca ptr, align 8
  store ptr %0, ptr %3, align 8, !tbaa !382
  store ptr %1, ptr %4, align 8, !tbaa !350
  %5 = load ptr, ptr %3, align 8
  %6 = getelementptr inbounds nuw %"class.std::lock_guard", ptr %5, i32 0, i32 0
  %7 = load ptr, ptr %4, align 8, !tbaa !350
  store ptr %7, ptr %6, align 8, !tbaa !350
  %8 = getelementptr inbounds nuw %"class.std::lock_guard", ptr %5, i32 0, i32 0
  %9 = load ptr, ptr %8, align 8, !tbaa !384
  call void @_ZNSt5mutex4lockEv(ptr noundef nonnull align 8 dereferenceable(40) %9)
  ret void
}

; Function Attrs: mustprogress uwtable
define noundef zeroext i1 @_ZN6duckdb15ConcurrentQueue19DequeueFromProducerERNS_13ProducerTokenERNS_10shared_ptrINS_4TaskELb1EEE(ptr noundef nonnull align 8 dereferenceable(656) %0, ptr noundef nonnull align 8 dereferenceable(56) %1, ptr noundef nonnull align 8 dereferenceable(16) %2) #0 align 2 personality ptr @__gxx_personality_v0 {
  %4 = alloca ptr, align 8
  %5 = alloca ptr, align 8
  %6 = alloca ptr, align 8
  %7 = alloca %"class.std::lock_guard", align 8
  %8 = alloca ptr, align 8
  %9 = alloca i32, align 4
  store ptr %0, ptr %4, align 8, !tbaa !1197
  store ptr %1, ptr %5, align 8, !tbaa !374
  store ptr %2, ptr %6, align 8, !tbaa !319
  %10 = load ptr, ptr %4, align 8
  call void @llvm.lifetime.start.p0(i64 8, ptr %7) #24
  %11 = load ptr, ptr %5, align 8, !tbaa !374
  %12 = getelementptr inbounds nuw %"struct.duckdb::ProducerToken", ptr %11, i32 0, i32 2
  call void @_ZNSt10lock_guardISt5mutexEC2ERS0_(ptr noundef nonnull align 8 dereferenceable(8) %7, ptr noundef nonnull align 8 dereferenceable(40) %12)
  %13 = getelementptr inbounds nuw %"struct.duckdb::ConcurrentQueue", ptr %10, i32 0, i32 0
  %14 = load ptr, ptr %5, align 8, !tbaa !374
  %15 = getelementptr inbounds nuw %"struct.duckdb::ProducerToken", ptr %14, i32 0, i32 1
  %16 = invoke noundef ptr @_ZNK6duckdb10unique_ptrINS_18QueueProducerTokenESt14default_deleteIS1_ELb1EEptEv(ptr noundef nonnull align 8 dereferenceable(8) %15)
          to label %17 unwind label %22

17:                                               ; preds = %3
  %18 = getelementptr inbounds nuw %"struct.duckdb::QueueProducerToken", ptr %16, i32 0, i32 0
  %19 = load ptr, ptr %6, align 8, !tbaa !319
  %20 = invoke noundef zeroext i1 @_ZN17duckdb_moodycamel15ConcurrentQueueIN6duckdb10shared_ptrINS1_4TaskELb1EEENS_28ConcurrentQueueDefaultTraitsEE25try_dequeue_from_producerIS4_EEbRKNS_13ProducerTokenERT_(ptr noundef nonnull align 8 dereferenceable(612) %13, ptr noundef nonnull align 8 dereferenceable(8) %18, ptr noundef nonnull align 8 dereferenceable(16) %19)
          to label %21 unwind label %22

21:                                               ; preds = %17
  call void @_ZNSt10lock_guardISt5mutexED2Ev(ptr noundef nonnull align 8 dereferenceable(8) %7) #24
  call void @llvm.lifetime.end.p0(i64 8, ptr %7) #24
  ret i1 %20

22:                                               ; preds = %17, %3
  %23 = landingpad { ptr, i32 }
          cleanup
  %24 = extractvalue { ptr, i32 } %23, 0
  store ptr %24, ptr %8, align 8
  %25 = extractvalue { ptr, i32 } %23, 1
  store i32 %25, ptr %9, align 4
  call void @_ZNSt10lock_guardISt5mutexED2Ev(ptr noundef nonnull align 8 dereferenceable(8) %7) #24
  call void @llvm.lifetime.end.p0(i64 8, ptr %7) #24
  br label %26

26:                                               ; preds = %22
  %27 = load ptr, ptr %8, align 8
  %28 = load i32, ptr %9, align 4
  %29 = insertvalue { ptr, i32 } poison, ptr %27, 0
  %30 = insertvalue { ptr, i32 } %29, i32 %28, 1
  resume { ptr, i32 } %30
}

; Function Attrs: mustprogress uwtable
define noundef zeroext i1 @_ZN6duckdb13TaskScheduler19GetTaskFromProducerERNS_13ProducerTokenERNS_10shared_ptrINS_4TaskELb1EEE(ptr noundef nonnull align 8 dereferenceable(124) %0, ptr noundef nonnull align 8 dereferenceable(56) %1, ptr noundef nonnull align 8 dereferenceable(16) %2) #0 align 2 {
  %4 = alloca ptr, align 8
  %5 = alloca ptr, align 8
  %6 = alloca ptr, align 8
  store ptr %0, ptr %4, align 8, !tbaa !253
  store ptr %1, ptr %5, align 8, !tbaa !374
  store ptr %2, ptr %6, align 8, !tbaa !319
  %7 = load ptr, ptr %4, align 8
  %8 = getelementptr inbounds nuw %"class.duckdb::TaskScheduler", ptr %7, i32 0, i32 1
  %9 = call noundef ptr @_ZNK6duckdb10unique_ptrINS_15ConcurrentQueueESt14default_deleteIS1_ELb1EEptEv(ptr noundef nonnull align 8 dereferenceable(8) %8)
  %10 = load ptr, ptr %5, align 8, !tbaa !374
  %11 = load ptr, ptr %6, align 8, !tbaa !319
  %12 = call noundef zeroext i1 @_ZN6duckdb15ConcurrentQueue19DequeueFromProducerERNS_13ProducerTokenERNS_10shared_ptrINS_4TaskELb1EEE(ptr noundef nonnull align 8 dereferenceable(656) %9, ptr noundef nonnull align 8 dereferenceable(56) %10, ptr noundef nonnull align 8 dereferenceable(16) %11)
  ret i1 %12
}