; Function Attrs: mustprogress uwtable
define noundef zeroext i1 @_ZN6duckdb13TaskScheduler19GetTaskFromProducerERNS_13ProducerTokenERNS_10shared_ptrINS_4TaskELb1EEE(ptr noundef nonnull align 8 dereferenceable(124) %0, ptr noundef nonnull align 8 dereferenceable(56) %1, ptr noundef nonnull align 8 dereferenceable(16) %2) local_unnamed_addr #0 align 2 personality ptr @__gxx_personality_v0 {
  %4 = getelementptr inbounds nuw i8, ptr %0, i64 8
  %5 = tail call noundef ptr @_ZNK6duckdb10unique_ptrINS_15ConcurrentQueueESt14default_deleteIS1_ELb1EEptEv(ptr noundef nonnull align 8 dereferenceable(8) %4)
  %6 = getelementptr inbounds nuw i8, ptr %1, i64 16
  %7 = tail call noundef i32 @pthread_mutex_lock(ptr noundef nonnull align 8 dereferenceable(40) %6) #35
  %.not.i.i.i = icmp eq i32 %7, 0
  br i1 %.not.i.i.i, label %_ZNSt10lock_guardISt5mutexEC2ERS0_.exit.i, label %8

8:                                                ; preds = %3
  tail call void @_ZSt20__throw_system_errori(i32 noundef %7) #36
  unreachable

_ZNSt10lock_guardISt5mutexEC2ERS0_.exit.i:        ; preds = %3
  %9 = getelementptr inbounds nuw i8, ptr %1, i64 8
  %10 = invoke noundef ptr @_ZNK6duckdb10unique_ptrINS_18QueueProducerTokenESt14default_deleteIS1_ELb1EEptEv(ptr noundef nonnull align 8 dereferenceable(8) %9)
          to label %11 unwind label %15

11:                                               ; preds = %_ZNSt10lock_guardISt5mutexEC2ERS0_.exit.i
  %12 = load ptr, ptr %10, align 8, !tbaa !615, !nonnull !157, !noundef !157
  %13 = getelementptr inbounds i8, ptr %12, i64 -8
  %14 = invoke noundef zeroext i1 @_ZN17duckdb_moodycamel15ConcurrentQueueIN6duckdb10shared_ptrINS1_4TaskELb1EEENS_28ConcurrentQueueDefaultTraitsEE16ExplicitProducer7dequeueIS4_EEbRT_(ptr noundef nonnull align 8 dereferenceable(136) %13, ptr noundef nonnull align 8 dereferenceable(16) %2)
          to label %_ZN6duckdb15ConcurrentQueue19DequeueFromProducerERNS_13ProducerTokenERNS_10shared_ptrINS_4TaskELb1EEE.exit unwind label %15

15:                                               ; preds = %11, %_ZNSt10lock_guardISt5mutexEC2ERS0_.exit.i
  %16 = landingpad { ptr, i32 }
          cleanup
  %17 = tail call noundef i32 @pthread_mutex_unlock(ptr noundef nonnull align 8 dereferenceable(40) %6) #35
  resume { ptr, i32 } %16

_ZN6duckdb15ConcurrentQueue19DequeueFromProducerERNS_13ProducerTokenERNS_10shared_ptrINS_4TaskELb1EEE.exit: ; preds = %11
  %18 = tail call noundef i32 @pthread_mutex_unlock(ptr noundef nonnull align 8 dereferenceable(40) %6) #35
  ret i1 %14
}